target datalayout = "e-m:e-p270:32:32-p271:32:32-p272:64:64-i64:64-i128:128-f80:128-n8:16:32:64-S128"
target triple = "x86_64-pc-linux-gnu"

%class.QString = type { ptr }

@.str.34 = private unnamed_addr constant [65 x i8] c"Create a Box, Cube, Hexahedron. You can specify the side length.\00", align 1
@.str.35 = private unnamed_addr constant [89 x i8] c"Create an Annulus e.g. a flat region bounded by two concentric circles, or a holed disk.\00", align 1
@.str.36 = private unnamed_addr constant [86 x i8] c"Create a Sphere, whose topology is obtained as regular subdivision of an icosahedron.\00", align 1
@.str.37 = private unnamed_addr constant [75 x i8] c"Create a Sphere Cap, or spherical dome, subtended by a cone of given angle\00", align 1
@.str.38 = private unnamed_addr constant [75 x i8] c"Create a spherical point cloud, it can be random or regularly distributed.\00", align 1
@.str.39 = private unnamed_addr constant [22 x i8] c"Create an Icosahedron\00", align 1
@.str.40 = private unnamed_addr constant [23 x i8] c"Create an Dodecahedron\00", align 1
@.str.41 = private unnamed_addr constant [21 x i8] c"Create an Octahedron\00", align 1
@.str.42 = private unnamed_addr constant [21 x i8] c"Create a Tetrahedron\00", align 1
@.str.43 = private unnamed_addr constant [14 x i8] c"Create a Cone\00", align 1
@.str.44 = private unnamed_addr constant [15 x i8] c"Create a Torus\00", align 1
@.str.45 = private unnamed_addr constant [49 x i8] c"Create a quad on the plane fitting the selection\00", align 1
@.str.46 = private unnamed_addr constant [1 x i8] zeroinitializer, align 1

; Function Attrs: mustprogress uwtable
define linkonce_odr void @_ZN7QStringC2EPKc(ptr noundef nonnull align 8 dereferenceable(8) %0, ptr noundef %1) unnamed_addr #5 comdat align 2 {
  %3 = alloca ptr, align 8
  %4 = alloca ptr, align 8
  store ptr %0, ptr %3, align 8
  store ptr %1, ptr %4, align 8
  %5 = load ptr, ptr %3, align 8
  %6 = getelementptr inbounds %class.QString, ptr %5, i32 0, i32 0
  %7 = load ptr, ptr %4, align 8
  %8 = load ptr, ptr %4, align 8
  %9 = icmp ne ptr %8, null
  br i1 %9, label %10, label %14

10:                                               ; preds = %2
  %11 = load ptr, ptr %4, align 8
  %12 = call i64 @strlen(ptr noundef %11) #24
  %13 = trunc i64 %12 to i32
  br label %15

14:                                               ; preds = %2
  br label %15

15:                                               ; preds = %14, %10
  %16 = phi i32 [ %13, %10 ], [ -1, %14 ]
  %17 = call noundef ptr @_ZN7QString16fromAscii_helperEPKci(ptr noundef %7, i32 noundef %16)
  store ptr %17, ptr %6, align 8
  ret void
}

; Function Attrs: mustprogress uwtable
define void @_ZNK12FilterCreate10filterInfoEi(ptr dead_on_unwind noalias writable sret(%class.QString) align 8 %0, ptr noundef nonnull align 8 dereferenceable(80) %1, i32 noundef %2) unnamed_addr #5 align 2 {
  %4 = alloca ptr, align 8
  %5 = alloca ptr, align 8
  %6 = alloca i32, align 4
  store ptr %0, ptr %4, align 8
  store ptr %1, ptr %5, align 8
  store i32 %2, ptr %6, align 4
  %7 = load i32, ptr %6, align 4
  switch i32 %7, label %20 [
    i32 0, label %8
    i32 1, label %9
    i32 2, label %10
    i32 3, label %11
    i32 4, label %12
    i32 5, label %13
    i32 6, label %14
    i32 8, label %15
    i32 7, label %16
    i32 9, label %17
    i32 10, label %18
    i32 11, label %19
  ]

8:                                                ; preds = %3
  call void @_ZN7QStringC2EPKc(ptr noundef nonnull align 8 dereferenceable(8) %0, ptr noundef @.str.34)
  br label %22

9:                                                ; preds = %3
  call void @_ZN7QStringC2EPKc(ptr noundef nonnull align 8 dereferenceable(8) %0, ptr noundef @.str.35)
  br label %22

10:                                               ; preds = %3
  call void @_ZN7QStringC2EPKc(ptr noundef nonnull align 8 dereferenceable(8) %0, ptr noundef @.str.36)
  br label %22

11:                                               ; preds = %3
  call void @_ZN7QStringC2EPKc(ptr noundef nonnull align 8 dereferenceable(8) %0, ptr noundef @.str.37)
  br label %22

12:                                               ; preds = %3
  call void @_ZN7QStringC2EPKc(ptr noundef nonnull align 8 dereferenceable(8) %0, ptr noundef @.str.38)
  br label %22

13:                                               ; preds = %3
  call void @_ZN7QStringC2EPKc(ptr noundef nonnull align 8 dereferenceable(8) %0, ptr noundef @.str.39)
  br label %22

14:                                               ; preds = %3
  call void @_ZN7QStringC2EPKc(ptr noundef nonnull align 8 dereferenceable(8) %0, ptr noundef @.str.40)
  br label %22

15:                                               ; preds = %3
  call void @_ZN7QStringC2EPKc(ptr noundef nonnull align 8 dereferenceable(8) %0, ptr noundef @.str.41)
  br label %22

16:                                               ; preds = %3
  call void @_ZN7QStringC2EPKc(ptr noundef nonnull align 8 dereferenceable(8) %0, ptr noundef @.str.42)
  br label %22

17:                                               ; preds = %3
  call void @_ZN7QStringC2EPKc(ptr noundef nonnull align 8 dereferenceable(8) %0, ptr noundef @.str.43)
  br label %22

18:                                               ; preds = %3
  call void @_ZN7QStringC2EPKc(ptr noundef nonnull align 8 dereferenceable(8) %0, ptr noundef @.str.44)
  br label %22

19:                                               ; preds = %3
  call void @_ZN7QStringC2EPKc(ptr noundef nonnull align 8 dereferenceable(8) %0, ptr noundef @.str.45)
  br label %22

20:                                               ; preds = %3
  br label %21

21:                                               ; preds = %20
  call void @_ZN7QStringC2EPKc(ptr noundef nonnull align 8 dereferenceable(8) %0, ptr noundef @.str.46)
  br label %22

22:                                               ; preds = %21, %19, %18, %17, %16, %15, %14, %13, %12, %11, %10, %9, %8
  ret void
}